// Gate 6 of the Hakkun spike: full ingest of switch-mod/src/hooks/HookSymbols.hpp
// into a sail .sym file. SMO 1.0.0 is build-id 3ca12dfaaf9c82da064d1698df79cda1
// per VersionList.sym (@smo:100). All entries below are compact form — sail
// resolves them against main.nso's dynsym at link time.

@smo:100

_ZNK16HakoniwaSequence8drawMainEv
_ZN10GameSystem4initEv
_ZN2al5Scene7endInitERKNS_13ActorInitInfoE
_ZN12GameDataFile11setGotShineEPK9ShineInfo
_ZNK12GameDataFile10isGotShineEi
_ZN16PlayerHackKeeper9startHackEPN2al9HitSensorES2_PNS0_9LiveActorE
_ZN16PlayerHackKeeper13forceKillHackEv
_ZN16PlayerHackKeeper13tryEscapeHackEv
_ZNK16PlayerHackKeeper21isActiveHackStartDemoEv
_ZN12GameDataFile17setMainScenarioNoEi
_ZN12GameDataFile14initializeDataEv
_ZN18PlayerHitPointData4killEv
_ZN16GameDataFunction18getCurrentShineNumE22GameDataHolderAccessor
_ZN16GameDataFunction14getGotShineNumE22GameDataHolderAccessori
_ZN16GameDataFunction11addPayShineE20GameDataHolderWriteri
_ZN16GameDataFunction21addPayShineCurrentAllE20GameDataHolderWriter
_ZN16GameDataFunction26getCurrentWorldIdNoDevelopE22GameDataHolderAccessor
_ZN16GameDataFunction14getPayShineNumE22GameDataHolderAccessori
_ZN16GameDataFunction17addHackDictionaryE20GameDataHolderWriterPKc
_ZN16GameDataFunction23isExistInHackDictionaryE22GameDataHolderAccessorPKc
_ZN23StageSceneStateGetShine10exeDemoGetEv
_ZN27StageSceneStateGetShineMain15exeDemoGetStartEv
_ZN28StageSceneStateGetShineGrand15exeDemoGetStartEv
_ZN2al19setPaneStringFormatEPNS_10IUseLayoutEPKcS3_z
_ZN2al27isExistLabelInSystemMessageEPKNS_17IUseMessageSystemEPKcS4_
_ZN2al22getSystemMessageStringEPKNS_17IUseMessageSystemEPKcS4_
_ZN2al26isExistLabelInStageMessageEPKNS_17IUseMessageSystemEPKcS4_
_ZN2al21getStageMessageStringEPKNS_17IUseMessageSystemEPKcS4_
_ZN2rs28tryShowCapMessagePriorityLowEPKN2al18IUseSceneObjHolderEPKcii
_ZN2rs18isActiveCapMessageEPKN2al18IUseSceneObjHolderE
_ZN5Shine4initERKN2al13ActorInitInfoE
_ZN2al23setMaterialProgrammableEPNS_9LiveActorE
_ZN2al29setModelMaterialParameterRgbaEPKNS_9LiveActorEPKcS4_RKN4sead7Color4fE
_ZN2al28setModelMaterialParameterF32EPKNS_9LiveActorEPKcS4_f
_ZN2al15isExistMaterialEPKNS_9LiveActorEPKc
_ZN2al12isExistModelEPKNS_9LiveActorE
_ZN16GameDataFunction32calcNextLockedWorldIdForWorldMapEPKN2al11LayoutActorEi
_ZN16GameDataFunction32calcNextLockedWorldIdForWorldMapEPKN2al5SceneEi
_ZN16GameDataFunction35tryChangeNextStageWithDemoWorldWarpE20GameDataHolderWriterPKc
_ZN16GameDataFunction35tryChangeNextStageWithWorldWarpHoleE20GameDataHolderWriterPKc

// CreditsStartHook (Strategy A): patches the BL @+0x4C54A4 inside
// StaffRollScene::init to call our onCreditsStart, which then chain-calls
// the original target — al::Scene::initDrawSystemInfo. Sail needs to
// resolve initDrawSystemInfo so our callback can reach it.
_ZN2al5Scene18initDrawSystemInfoERKNS_13SceneInitInfoE

// Talkatoo% mode (Phase 3): substitution at the speech-resolve chokepoint.
// GameDataFunction::tryFindShineMessage(actor*, sys*, world_id, index)
// returns the per-shine display char16_t* for the speech bubble. We
// trampoline it and replace the return value with an AP-pool moon name
// when the caller is a Poetter (Talkatoo) actor.
_ZN16GameDataFunction19tryFindShineMessageEPKN2al9LiveActorEPKNS0_17IUseMessageSystemEii

// Poetter (Talkatoo) primary vtable. Read at install time via
// hk::ro::lookupSymbol — used as a range filter to scope substitution to
// Talkatoo-only callsites. The trampoline above runs for every caller
// (cutscenes, pause menu, hint UI), so without this we'd substitute moon
// names project-wide.
_ZTV7Poetter

// --- ImGui debug overlay deps (ui::ApDebugConsole) ----------------------
// Application::sInstance is the SEAD_SINGLETON_DISPOSER static that
// Application::instance() reads. al::getStationedHeap is the stationed
// heap source the overlay carves a 2 MiB ExpHeap out of. sead::ExpHeap::create
// + sead::SafeStringBase<char>::operator= are needed by the ExpHeap
// constructor (it stores the heap name as a SafeString). All taken from
// Kgamer77/SMOO-Plus-Hakkun's working syms.
_ZN11Application9sInstanceE
_ZN2al16getStationedHeapEv
_ZN4sead7ExpHeap6createEmRKNS_14SafeStringBaseIcEEPNS_4HeapEiNS5_13HeapDirectionEb
_ZN4sead14SafeStringBaseIcEaSERKS1_

// Talkatoo% pause-menu mark fix — TalkatooMenuMarkHook.cpp.
//
// Hook 1: GameDataFile::isOpenShineName(s32 world_id, s32 index) const.
// Pause-menu Power Moon list queries this to draw the "name revealed"
// indicator. In Talkatoo% mode we OR-in our AP-pool named set so the
// moons we substituted in the speech bubble are marked as named in the
// menu (vanilla path keeps marking collected / achievement-revealed
// moons; we add our AP picks on top).
//
// Hook 2: GameDataFile::tryUnlockShineName(s32 world_id, s32 index).
// Talkatoo's vanilla picker writes the per-(world, idx) "name revealed"
// state via this setter. In Talkatoo% mode we suppress the write so the
// menu doesn't mark moons the player never actually heard Talkatoo speak.
//
// Helper: GameDataFile::findShine(s32 world_id, s32 index) const →
// HintInfo*. Used by Hook 1 to translate (world_id, idx) into the
// stageName/objId pair shineUidByStageObj resolves to a shine_uid.
_ZNK12GameDataFile15isOpenShineNameEii
_ZN12GameDataFile18tryUnlockShineNameEii
_ZNK12GameDataFile9findShineEii

// GrowSeedInstantHook: rs::getGrowFlowerTime(const al::LiveActor*,
// const al::PlacementId*). The public rs:: wrapper around
// GameDataFile::getGrowFlowerTime — the direct GameDataFile method is
// inlined in 1.0.0 main.nso and not in dynsym, but this wrapper IS
// (cross-checked against MrKatzenGaming/BTT-Studio syms/game/System/
// GameDataUtil.sym which pins it at 0x004dd230). Trampolined to return
// 1 for planted pots (orig==0 passes through), making (now - returned)
// enormous in any timebase so the pot blooms on next stage re-entry.
// NOT the same as BTT-Studio's "Refresh Seeds" toggle, which returns
// 0 from this wrapper as a deliberate RESET (clears the planted state +
// the seed item). See hooks/GrowSeedInstantHook.cpp.
_ZN2rs17getGrowFlowerTimeEPKN2al9LiveActorEPKNS0_11PlacementIdE
